; Function Attrs: nounwind uwtable
define internal fastcc void @ssl_tls13_handshake_wrapup(ptr noundef %0) unnamed_addr #0 {
  tail call void (ptr, i32, ptr, i32, ptr, ...) @mbedtls_debug_print_msg(ptr noundef %0, i32 noundef 2, ptr noundef nonnull @.str, i32 noundef 3099, ptr noundef nonnull @.str.129) #9
  tail call void @mbedtls_ssl_tls13_handshake_wrapup(ptr noundef %0) #9
  %2 = getelementptr i8, ptr %0, i64 112
  %.val = load ptr, ptr %2, align 8, !tbaa !16
  %3 = getelementptr i8, ptr %.val, i64 59
  %.val.val = load i8, ptr %3, align 1, !tbaa !96
  %4 = and i8 %.val.val, 5
  %.not5 = icmp eq i8 %4, 0
  %spec.select = select i1 %.not5, i32 27, i32 28
  %5 = getelementptr inbounds nuw i8, ptr %0, i64 8
  store i32 %spec.select, ptr %5, align 8, !tbaa !3
  ret void
}